target datalayout = "e-m:e-p270:32:32-p271:32:32-p272:64:64-i64:64-i128:128-f80:128-n8:16:32:64-S128"
target triple = "x86_64-pc-linux-gnu"

%struct.H5D_farray_filt_elmt_t = type { i64, i32, i32 }
%struct.H5D_farray_ctx_t = type { i64, i64 }

; Function Attrs: nounwind uwtable
define internal i32 @H5D__farray_filt_decode(ptr noundef %0, ptr noundef %1, i64 noundef %2, ptr noundef %3) #0 {
  %5 = alloca ptr, align 8
  %6 = alloca ptr, align 8
  %7 = alloca i64, align 8
  %8 = alloca ptr, align 8
  %9 = alloca ptr, align 8
  %10 = alloca ptr, align 8
  %11 = alloca ptr, align 8
  %12 = alloca i64, align 8
  store ptr %0, ptr %5, align 8
  store ptr %1, ptr %6, align 8
  store i64 %2, ptr %7, align 8
  store ptr %3, ptr %8, align 8
  %13 = load ptr, ptr %8, align 8
  store ptr %13, ptr %9, align 8
  %14 = load ptr, ptr %6, align 8
  store ptr %14, ptr %10, align 8
  %15 = load ptr, ptr %5, align 8
  store ptr %15, ptr %11, align 8
  br label %16

16:                                               ; preds = %103, %4
  %17 = load i64, ptr %7, align 8
  %18 = icmp ne i64 %17, 0
  br i1 %18, label %19, label %108

19:                                               ; preds = %16
  %20 = load ptr, ptr %9, align 8
  %21 = getelementptr inbounds %struct.H5D_farray_ctx_t, ptr %20, i32 0, i32 0
  %22 = load i64, ptr %21, align 8
  %23 = load ptr, ptr %10, align 8
  %24 = getelementptr inbounds %struct.H5D_farray_filt_elmt_t, ptr %23, i32 0, i32 0
  call void @H5F_addr_decode_len(i64 noundef %22, ptr noundef %11, ptr noundef %24)
  br label %25

25:                                               ; preds = %19
  %26 = load ptr, ptr %10, align 8
  %27 = getelementptr inbounds %struct.H5D_farray_filt_elmt_t, ptr %26, i32 0, i32 1
  store i32 0, ptr %27, align 8
  %28 = load ptr, ptr %9, align 8
  %29 = getelementptr inbounds %struct.H5D_farray_ctx_t, ptr %28, i32 0, i32 1
  %30 = load i64, ptr %29, align 8
  %31 = load ptr, ptr %11, align 8
  %32 = getelementptr inbounds i8, ptr %31, i64 %30
  store ptr %32, ptr %11, align 8
  store i64 0, ptr %12, align 8
  br label %33

33:                                               ; preds = %51, %25
  %34 = load i64, ptr %12, align 8
  %35 = load ptr, ptr %9, align 8
  %36 = getelementptr inbounds %struct.H5D_farray_ctx_t, ptr %35, i32 0, i32 1
  %37 = load i64, ptr %36, align 8
  %38 = icmp ult i64 %34, %37
  br i1 %38, label %39, label %54

39:                                               ; preds = %33
  %40 = load ptr, ptr %10, align 8
  %41 = getelementptr inbounds %struct.H5D_farray_filt_elmt_t, ptr %40, i32 0, i32 1
  %42 = load i32, ptr %41, align 8
  %43 = shl i32 %42, 8
  %44 = load ptr, ptr %11, align 8
  %45 = getelementptr inbounds i8, ptr %44, i32 -1
  store ptr %45, ptr %11, align 8
  %46 = load i8, ptr %45, align 1
  %47 = zext i8 %46 to i32
  %48 = or i32 %43, %47
  %49 = load ptr, ptr %10, align 8
  %50 = getelementptr inbounds %struct.H5D_farray_filt_elmt_t, ptr %49, i32 0, i32 1
  store i32 %48, ptr %50, align 8
  br label %51

51:                                               ; preds = %39
  %52 = load i64, ptr %12, align 8
  %53 = add i64 %52, 1
  store i64 %53, ptr %12, align 8
  br label %33

54:                                               ; preds = %33
  %55 = load ptr, ptr %9, align 8
  %56 = getelementptr inbounds %struct.H5D_farray_ctx_t, ptr %55, i32 0, i32 1
  %57 = load i64, ptr %56, align 8
  %58 = load ptr, ptr %11, align 8
  %59 = getelementptr inbounds i8, ptr %58, i64 %57
  store ptr %59, ptr %11, align 8
  br label %60

60:                                               ; preds = %54
  br label %61

61:                                               ; preds = %60
  %62 = load ptr, ptr %11, align 8
  %63 = load i8, ptr %62, align 1
  %64 = zext i8 %63 to i32
  %65 = and i32 %64, 255
  %66 = load ptr, ptr %10, align 8
  %67 = getelementptr inbounds %struct.H5D_farray_filt_elmt_t, ptr %66, i32 0, i32 2
  store i32 %65, ptr %67, align 4
  %68 = load ptr, ptr %11, align 8
  %69 = getelementptr inbounds i8, ptr %68, i32 1
  store ptr %69, ptr %11, align 8
  %70 = load ptr, ptr %11, align 8
  %71 = load i8, ptr %70, align 1
  %72 = zext i8 %71 to i32
  %73 = and i32 %72, 255
  %74 = shl i32 %73, 8
  %75 = load ptr, ptr %10, align 8
  %76 = getelementptr inbounds %struct.H5D_farray_filt_elmt_t, ptr %75, i32 0, i32 2
  %77 = load i32, ptr %76, align 4
  %78 = or i32 %77, %74
  store i32 %78, ptr %76, align 4
  %79 = load ptr, ptr %11, align 8
  %80 = getelementptr inbounds i8, ptr %79, i32 1
  store ptr %80, ptr %11, align 8
  %81 = load ptr, ptr %11, align 8
  %82 = load i8, ptr %81, align 1
  %83 = zext i8 %82 to i32
  %84 = and i32 %83, 255
  %85 = shl i32 %84, 16
  %86 = load ptr, ptr %10, align 8
  %87 = getelementptr inbounds %struct.H5D_farray_filt_elmt_t, ptr %86, i32 0, i32 2
  %88 = load i32, ptr %87, align 4
  %89 = or i32 %88, %85
  store i32 %89, ptr %87, align 4
  %90 = load ptr, ptr %11, align 8
  %91 = getelementptr inbounds i8, ptr %90, i32 1
  store ptr %91, ptr %11, align 8
  %92 = load ptr, ptr %11, align 8
  %93 = load i8, ptr %92, align 1
  %94 = zext i8 %93 to i32
  %95 = and i32 %94, 255
  %96 = shl i32 %95, 24
  %97 = load ptr, ptr %10, align 8
  %98 = getelementptr inbounds %struct.H5D_farray_filt_elmt_t, ptr %97, i32 0, i32 2
  %99 = load i32, ptr %98, align 4
  %100 = or i32 %99, %96
  store i32 %100, ptr %98, align 4
  %101 = load ptr, ptr %11, align 8
  %102 = getelementptr inbounds i8, ptr %101, i32 1
  store ptr %102, ptr %11, align 8
  br label %103

103:                                              ; preds = %61
  %104 = load ptr, ptr %10, align 8
  %105 = getelementptr inbounds %struct.H5D_farray_filt_elmt_t, ptr %104, i32 1
  store ptr %105, ptr %10, align 8
  %106 = load i64, ptr %7, align 8
  %107 = add i64 %106, -1
  store i64 %107, ptr %7, align 8
  br label %16

108:                                              ; preds = %16
  ret i32 0
}