; Function Attrs: nounwind uwtable
define internal noundef i32 @H5D__farray_filt_decode(ptr noundef %0, ptr noundef %1, i64 noundef %2, ptr nocapture noundef readonly %3) #1 {
  %5 = alloca ptr, align 8
  store ptr %0, ptr %5, align 8
  %.not23 = icmp eq i64 %2, 0
  br i1 %.not23, label %._crit_edge28, label %.lr.ph27

.lr.ph27:                                         ; preds = %4
  %6 = getelementptr inbounds i8, ptr %3, i64 8
  br label %7

7:                                                ; preds = %.lr.ph27, %._crit_edge
  %.01925 = phi ptr [ %1, %.lr.ph27 ], [ %44, %._crit_edge ]
  %.02024 = phi i64 [ %2, %.lr.ph27 ], [ %45, %._crit_edge ]
  %8 = load i64, ptr %3, align 8
  call void @H5F_addr_decode_len(i64 noundef %8, ptr noundef nonnull %5, ptr noundef %.01925) #11
  %9 = getelementptr inbounds i8, ptr %.01925, i64 8
  store i32 0, ptr %9, align 8
  %10 = load i64, ptr %6, align 8
  %11 = load ptr, ptr %5, align 8
  %12 = getelementptr inbounds i8, ptr %11, i64 %10
  %.not29 = icmp eq i64 %10, 0
  br i1 %.not29, label %._crit_edge, label %.lr.ph

.lr.ph:                                           ; preds = %7, %.lr.ph
  %13 = phi i32 [ %19, %.lr.ph ], [ 0, %7 ]
  %.022 = phi i64 [ %20, %.lr.ph ], [ 0, %7 ]
  %14 = phi ptr [ %16, %.lr.ph ], [ %12, %7 ]
  %15 = shl i32 %13, 8
  %16 = getelementptr inbounds i8, ptr %14, i64 -1
  store ptr %16, ptr %5, align 8
  %17 = load i8, ptr %16, align 1
  %18 = zext i8 %17 to i32
  %19 = or disjoint i32 %15, %18
  store i32 %19, ptr %9, align 8
  %20 = add nuw i64 %.022, 1
  %21 = load i64, ptr %6, align 8
  %22 = icmp ult i64 %20, %21
  br i1 %22, label %.lr.ph, label %._crit_edge

._crit_edge:                                      ; preds = %.lr.ph, %7
  %23 = phi ptr [ %12, %7 ], [ %16, %.lr.ph ]
  %.lcssa = phi i64 [ 0, %7 ], [ %21, %.lr.ph ]
  %24 = getelementptr inbounds i8, ptr %23, i64 %.lcssa
  store ptr %24, ptr %5, align 8
  %25 = load i8, ptr %24, align 1
  %26 = zext i8 %25 to i32
  %27 = getelementptr inbounds i8, ptr %.01925, i64 12
  store i32 %26, ptr %27, align 4
  %28 = getelementptr inbounds i8, ptr %24, i64 1
  store ptr %28, ptr %5, align 8
  %29 = load i8, ptr %28, align 1
  %30 = zext i8 %29 to i32
  %31 = shl nuw nsw i32 %30, 8
  %32 = or disjoint i32 %31, %26
  store i32 %32, ptr %27, align 4
  %33 = getelementptr inbounds i8, ptr %24, i64 2
  store ptr %33, ptr %5, align 8
  %34 = load i8, ptr %33, align 1
  %35 = zext i8 %34 to i32
  %36 = shl nuw nsw i32 %35, 16
  %37 = or disjoint i32 %36, %32
  store i32 %37, ptr %27, align 4
  %38 = getelementptr inbounds i8, ptr %24, i64 3
  store ptr %38, ptr %5, align 8
  %39 = load i8, ptr %38, align 1
  %40 = zext i8 %39 to i32
  %41 = shl nuw i32 %40, 24
  %42 = or disjoint i32 %41, %37
  store i32 %42, ptr %27, align 4
  %43 = getelementptr inbounds i8, ptr %24, i64 4
  store ptr %43, ptr %5, align 8
  %44 = getelementptr inbounds i8, ptr %.01925, i64 16
  %45 = add i64 %.02024, -1
  %.not = icmp eq i64 %45, 0
  br i1 %.not, label %._crit_edge28, label %7

._crit_edge28:                                    ; preds = %._crit_edge, %4
  ret i32 0
}